target datalayout = "e-m:e-p270:32:32-p271:32:32-p272:64:64-i64:64-i128:128-f80:128-n8:16:32:64-S128"
target triple = "x86_64-pc-linux-gnu"

%struct.__va_list_tag = type { i32, i32, ptr, ptr }

; Function Attrs: mustprogress uwtable
define void @_ZN7rocksdb11LogToBufferEPNS_9LogBufferEmPKcz(ptr noundef %0, i64 noundef %1, ptr noundef %2, ...) #0 {
  %4 = alloca ptr, align 8
  %5 = alloca i64, align 8
  %6 = alloca ptr, align 8
  %7 = alloca [1 x %struct.__va_list_tag], align 16
  store ptr %0, ptr %4, align 8, !tbaa !4
  store i64 %1, ptr %5, align 8, !tbaa !46
  store ptr %2, ptr %6, align 8, !tbaa !47
  %8 = load ptr, ptr %4, align 8, !tbaa !4
  %9 = icmp ne ptr %8, null
  br i1 %9, label %10, label %17

10:                                               ; preds = %3
  call void @llvm.lifetime.start.p0(i64 24, ptr %7) #15
  %11 = getelementptr inbounds [1 x %struct.__va_list_tag], ptr %7, i64 0, i64 0
  call void @llvm.va_start.p0(ptr %11)
  %12 = load ptr, ptr %4, align 8, !tbaa !4
  %13 = load i64, ptr %5, align 8, !tbaa !46
  %14 = load ptr, ptr %6, align 8, !tbaa !47
  %15 = getelementptr inbounds [1 x %struct.__va_list_tag], ptr %7, i64 0, i64 0
  call void @_ZN7rocksdb9LogBuffer14AddLogToBufferEmPKcP13__va_list_tag(ptr noundef nonnull align 16 dereferenceable(2408) %12, i64 noundef %13, ptr noundef %14, ptr noundef %15)
  %16 = getelementptr inbounds [1 x %struct.__va_list_tag], ptr %7, i64 0, i64 0
  call void @llvm.va_end.p0(ptr %16)
  call void @llvm.lifetime.end.p0(i64 24, ptr %7) #15
  br label %17

17:                                               ; preds = %10, %3
  ret void
}