; Function Attrs: mustprogress uwtable
define void @_ZN7rocksdb11LogToBufferEPNS_9LogBufferEmPKcz(ptr noundef %0, i64 noundef %1, ptr noundef readonly captures(none) %2, ...) local_unnamed_addr #0 {
  %4 = alloca [1 x %struct.__va_list_tag], align 16
  %.not = icmp eq ptr %0, null
  br i1 %.not, label %6, label %5

5:                                                ; preds = %3
  call void @llvm.lifetime.start.p0(i64 24, ptr nonnull %4) #13
  call void @llvm.va_start.p0(ptr nonnull %4)
  call void @_ZN7rocksdb9LogBuffer14AddLogToBufferEmPKcP13__va_list_tag(ptr noundef nonnull align 16 dereferenceable(2408) %0, i64 noundef %1, ptr noundef %2, ptr noundef nonnull %4)
  call void @llvm.va_end.p0(ptr nonnull %4)
  call void @llvm.lifetime.end.p0(i64 24, ptr nonnull %4) #13
  br label %6

6:                                                ; preds = %5, %3
  ret void
}